******************************************************************************
             TMS320C2000 Linker PC v6.2.9                      
******************************************************************************
>> Linked Mon Aug 01 11:17:39 2016

OUTPUT FILE NAME:   <C28_V2.0.out>
ENTRY POINT SYMBOL: "_c_int00"  address: 0013c5c7


MEMORY CONFIGURATION

         name            origin    length      used     unused   attr    fill
----------------------  --------  ---------  --------  --------  ----  --------
PAGE 0:
  RAML0L1               00008000   00002000  00001b68  00000498  RWIX
  FLASHN                00100000   00002000  00000000  00002000  RWIX
  FLASHM                00102000   00002000  00000000  00002000  RWIX
  FLASHL                00104000   00002000  00000000  00002000  RWIX
  FLASHK                00106000   00002000  00000000  00002000  RWIX
  FLASHJ                00108000   00008000  00000000  00008000  RWIX
  FLASHI                00110000   00008000  00000000  00008000  RWIX
  FLASHH                00118000   00008000  00000000  00008000  RWIX
  FLASHG                00120000   00008000  00000000  00008000  RWIX
  FLASHF                00128000   00008000  00000000  00008000  RWIX
  FLASHE                00130000   00008000  00000000  00008000  RWIX
  FLASHD                00138000   00002000  00001b68  00000498  RWIX
  FLASHCB               0013a000   00004000  00002764  0000189c  RWIX
  FLASHA                0013e000   00001f80  0000016f  00001e11  RWIX
  CSM_RSVD              0013ff80   00000070  00000000  00000070  RWIX
  BEGIN                 0013fff0   00000002  00000002  00000000  RWIX
  FLASH_EXE_ONLY_P0     0013fff2   00000002  00000000  00000002  RWIX
  ECSL_PWL_P0           0013fff4   00000004  00000000  00000004  RWIX
  CSM_PWL_P0            0013fff8   00000008  00000000  00000008  RWIX
  FPUTABLES             003fd21a   000006a0  00000000  000006a0  RWIX
  IQTABLES              003fd8ba   00000b50  00000000  00000b50  RWIX
  IQTABLES2             003fe40a   0000008c  00000000  0000008c  RWIX
  IQTABLES3             003fe496   000000aa  00000000  000000aa  RWIX
  BOOTROM               003fed6a   00001200  00000000  00001200  RWIX
  PIEMISHNDLR           003fffbe   00000002  00000000  00000002  RWIX
  RESET                 003fffc0   00000002  00000000  00000002  RWIX
  VECTORS               003fffc2   0000003e  00000000  0000003e  RWIX

PAGE 1:
  BOOT_RSVD             00000000   00000050  00000000  00000050  RWIX
  RAMM0                 00000080   00000380  00000300  00000080  RWIX
  RAMM1                 00000400   00000400  00000000  00000400  RWIX
  DEV_EMU               00000880   00000180  00000042  0000013e  RWIX
  CSM                   00000ae0   00000020  00000016  0000000a  RWIX
  ADC1_RESULT           00000b00   00000020  00000010  00000010  RWIX
  ADC2_RESULT           00000b40   00000020  00000010  00000010  RWIX
  CPU_TIMER0            00000c00   00000008  00000008  00000000  RWIX
  CPU_TIMER1            00000c08   00000008  00000008  00000000  RWIX
  CPU_TIMER2            00000c10   00000008  00000008  00000000  RWIX
  PIE_CTRL              00000ce0   00000020  0000001a  00000006  RWIX
  PIE_VECT              00000d00   00000100  00000100  00000000  RWIX
  PIE_VECT_CP           00000e00   00000100  00000100  00000000  RWIX
  DMA                   00001000   00000200  000000e0  00000120  RWIX
  ASYSCTRLCONFIG        00001700   00000080  00000078  00000008  RWIX
  HWBIST                00001780   00000040  00000030  00000010  RWIX
  FLASH_REGS            00004000   00000300  00000182  0000017e  RWIX
  FLASH_ECC             00004300   00000040  00000024  0000001c  RWIX
  M3PLL                 00004400   00000040  00000008  00000038  RWIX
  RAM_REGS              00004900   00000080  0000003e  00000042  RWIX
  RAM_ERR_REGS          00004a00   00000080  0000003e  00000042  RWIX
  CM_MC_IPC             00004e00   00000040  00000040  00000000  RWIX
  MCBSPA                00005000   00000040  00000024  0000001c  RWIX
  EPWM1                 00005100   00000080  00000080  00000000  RWIX
  EPWM2                 00005180   00000080  00000080  00000000  RWIX
  EPWM3                 00005200   00000080  00000080  00000000  RWIX
  EPWM4                 00005280   00000080  00000080  00000000  RWIX
  EPWM5                 00005300   00000080  00000080  00000000  RWIX
  EPWM6                 00005380   00000080  00000080  00000000  RWIX
  EPWM7                 00005400   00000080  00000080  00000000  RWIX
  EPWM8                 00005480   00000080  00000080  00000000  RWIX
  EPWM9                 00005500   00000080  00000080  00000000  RWIX
  EPWM10                00005580   00000080  00000080  00000000  RWIX
  EPWM11                00005600   00000080  00000000  00000080  RWIX
  EPWM12                00005680   00000080  00000000  00000080  RWIX
  ECAP1                 00005a00   00000020  00000020  00000000  RWIX
  ECAP2                 00005a20   00000020  00000020  00000000  RWIX
  ECAP3                 00005a40   00000020  00000020  00000000  RWIX
  ECAP4                 00005a60   00000020  00000020  00000000  RWIX
  ECAP5                 00005a80   00000020  00000020  00000000  RWIX
  ECAP6                 00005aa0   00000020  00000020  00000000  RWIX
  EQEP1                 00005b00   00000040  00000022  0000001e  RWIX
  EQEP2                 00005b40   00000040  00000022  0000001e  RWIX
  EQEP3                 00005b80   00000040  00000022  0000001e  RWIX
  GPIOG1REGS            00005f00   000000e0  000000e0  00000000  RWIX
  GPIOG1TRIP            00005fe0   00000020  00000020  00000000  RWIX
  COMP1                 00006400   00000020  00000007  00000019  RWIX
  COMP2                 00006420   00000020  00000007  00000019  RWIX
  COMP3                 00006440   00000020  00000007  00000019  RWIX
  COMP4                 00006460   00000020  00000007  00000019  RWIX
  COMP5                 00006480   00000020  00000007  00000019  RWIX
  COMP6                 000064a0   00000020  00000007  00000019  RWIX
  GPIOG2CTRL            00006f80   00000040  0000003c  00000004  RWIX
  GPIOG2DAT             00006fc0   00000020  00000020  00000000  RWIX
  SYSTEM                00007010   00000020  0000001d  00000003  RWIX
  SPIA                  00007040   00000010  00000010  00000000  RWIX
  SCIA                  00007050   00000010  00000010  00000000  RWIX
  NMIINTRUPT            00007060   00000010  00000006  0000000a  RWIX
  XINTRUPT              00007070   00000010  00000010  00000000  RWIX
  ADC1                  00007100   00000080  00000050  00000030  RWIX
  ADC2                  00007180   00000080  00000050  00000030  RWIX
  I2CA                  00007900   00000040  00000022  0000001e  RWIX
  RAML2                 0000a000   00001000  0000094f  000006b1  RWIX
  RAML3                 0000b000   00001000  00000000  00001000  RWIX
  RAMS0                 0000c000   00001000  00000330  00000cd0  RWIX
  RAMS1                 0000d000   00001000  00000330  00000cd0  RWIX
  RAMS2                 0000e000   00001000  00000440  00000bc0  RWIX
  RAMS3                 0000f000   00001000  00000000  00001000  RWIX
  RAMS45                00010000   00002000  00002000  00000000  RWIX
  RAMS67                00012000   00002000  00002000  00000000  RWIX
  CTOMRAM               0003f800   00000380  00000022  0000035e  RWIX
  MTOCRAM               0003fc00   00000380  00000272  0000010e  RWIX
  FLASH_EXE_ONLY        0013fff2   00000002  00000002  00000000  RWIX
  ECSL_PWL              0013fff4   00000004  00000004  00000000  RWIX
  CSM_PWL               0013fff8   00000008  00000008  00000000  RWIX


SECTION ALLOCATION MAP

 output                                  attributes/
section   page    origin      length       input sections
--------  ----  ----------  ----------   ----------------
.pinit     0    0013e000    00000000     UNINITIALIZED

GETBUFFER 
*          0    0003fc00    00000000     DSECT

GETWRITEIDX 
*          0    0003fc00    00000000     DSECT

PUTREADIDX 
*          0    0003fc00    00000000     DSECT

ramfuncs   0    00138000    00001b68     RUN ADDR = 00008000
                  00138000    000003f3     FAC_Full_ACDC_10kHz.obj (ramfuncs:retain)
                  001383f3    0000030c     FAC_Full_DCDC_20kHz.obj (ramfuncs:retain)
                  001386ff    000002fc     FAC_ACDC_10kHz.obj (ramfuncs:retain)
                  001389fb    000002cd     FAP_DCDC_20kHz.obj (ramfuncs:retain)
                  00138cc8    000002aa     FAC_DCDC_20kHz.obj (ramfuncs:retain)
                  00138f72    00000261     FBP_100kHz.obj (ramfuncs:retain)
                  001391d3    00000195     Test_HRADC.obj (ramfuncs:retain)
                  00139368    00000184     IPC_modules.obj (ramfuncs:retain)
                  001394ec    00000124     FAP_ACDC.obj (ramfuncs)
                  00139610    000000e6     ELP_DCL.obj (ramfuncs)
                  001396f6    000000e3     PWM_modules.obj (ramfuncs)
                  001397d9    000000d9     SigGen.obj (ramfuncs)
                  001398b2    00000075     F28M36x_SysCtrl.obj (ramfuncs)
                  00139927    00000070     FAP_ACDC.obj (ramfuncs:retain)
                  00139997    00000055     FAC_Full_ACDC_10kHz.obj (ramfuncs)
                  001399ec    0000004a     IPC_modules.obj (ramfuncs)
                  00139a36    00000049     FAC_ACDC_10kHz.obj (ramfuncs)
                  00139a7f    00000042     FBP_100kHz.obj (ramfuncs)
                  00139ac1    0000003b     FAC_DCDC_20kHz.obj (ramfuncs)
                  00139afc    00000039     FAC_Full_DCDC_20kHz.obj (ramfuncs)
                  00139b35    0000002f     FAP_DCDC_20kHz.obj (ramfuncs)
                  00139b64    00000004     F28M36x_usDelay.obj (ramfuncs)

.text      0    0013a000    00002764     
                  0013a000    000003cc     FAC_Full_ACDC_10kHz.obj (.text)
                  0013a3cc    0000035f     F28M36x_DefaultIsr.obj (.text:retain)
                  0013a72b    000002c9     FAC_ACDC_10kHz.obj (.text)
                  0013a9f4    00000251     FAC_Full_DCDC_20kHz.obj (.text)
                  0013ac45    0000021a     ELP_DCL.obj (.text)
                  0013ae5f    00000208     FAP_DCDC_20kHz.obj (.text)
                  0013b067    000001ff     FAC_DCDC_20kHz.obj (.text)
                  0013b266    000001e0     PWM_modules.obj (.text)
                  0013b446    000001db     FBP_100kHz.obj (.text)
                  0013b621    00000150     HRADC_Boards.obj (.text)
                  0013b771    00000140     SFO_TI_Build_V7_FPU.lib : SFO_v7_fpu_lib_build_c28.obj (.text)
                  0013b8b1    0000013c     Test_HRADC.obj (.text)
                  0013b9ed    00000138     DP_framework.obj (.text)
                  0013bb25    0000012d     FAP_ACDC.obj (.text)
                  0013bc52    00000109     F28M36x_Mcbsp.obj (.text)
                  0013bd5b    00000107     F28M36x_SysCtrl.obj (.text)
                  0013be62    000000f3     Test_HRPWM.obj (.text)
                  0013bf55    000000e5     SigGen.obj (.text)
                  0013c03a    000000db     DMA_SPI_Interface.obj (.text)
                  0013c115    000000c1     McBSP_SPI_Interface.obj (.text)
                  0013c1d6    000000a1     F28M36x_EPwm.obj (.text)
                  0013c277    00000088     rts2800_fpu32.lib : fs_div.obj (.text)
                  0013c2ff    00000084     IPC_modules.obj (.text)
                  0013c383    0000007c     DMA_SPI_Interface.obj (.text:retain)
                  0013c3ff    00000068     rts2800_fpu32.lib : exp.obj (.text)
                  0013c467    00000061                       : cos.obj (.text)
                  0013c4c8    0000005c     F28M36x_CpuTimers.obj (.text)
                  0013c524    00000058     rts2800_fpu32.lib : sin.obj (.text)
                  0013c57c    0000004b     main.obj (.text)
                  0013c5c7    00000046     rts2800_fpu32.lib : boot.obj (.text)
                  0013c60d    00000039     F28M36x_ELP_DRS.obj (.text)
                  0013c646    00000031     rts2800_fpu32.lib : ldexp.obj (.text)
                  0013c677    0000002d     F28M36x_PieCtrl.obj (.text)
                  0013c6a4    00000021     rts2800_fpu32.lib : memcpy_ff.obj (.text)
                  0013c6c5    0000001a     Test_HRADC.obj (.text:retain)
                  0013c6df    00000019     rts2800_fpu32.lib : args_main.obj (.text)
                  0013c6f8    00000019                       : exit.obj (.text)
                  0013c711    00000019                       : prolog.obj (.text)
                  0013c72a    00000014     TimeSlicer.obj (.text)
                  0013c73e    00000011     F28M36x_PieVect.obj (.text)
                  0013c74f    0000000c     rts2800_fpu32.lib : epilog.obj (.text)
                  0013c75b    00000009                       : _lock.obj (.text)

.econst    0    0013e000    00000100     
                  0013e000    00000100     F28M36x_PieVect.obj (.econst)

.cinit     0    0013e100    0000006f     
                  0013e100    00000030     ELP_DCL.obj (.cinit)
                  0013e130    00000015     PWM_modules.obj (.cinit)
                  0013e145    0000000c     DMA_SPI_Interface.obj (.cinit)
                  0013e151    0000000a     rts2800_fpu32.lib : _lock.obj (.cinit)
                  0013e15b    0000000a                       : exit.obj (.cinit)
                  0013e165    00000004     SFO_TI_Build_V7_FPU.lib : SFO_v7_fpu_lib_build_c28.obj (.cinit)
                  0013e169    00000004     rts2800_fpu32.lib : errno.obj (.cinit)
                  0013e16d    00000002     --HOLE-- [fill = 0]

codestart 
*          0    0013fff0    00000002     
                  0013fff0    00000002     F28M36x_CodeStartBranch.obj (codestart)

.reset     0    003fffc0    00000002     DSECT
                  003fffc0    00000002     rts2800_fpu32.lib : boot.obj (.reset)

vectors    0    003fffc2    00000000     DSECT

.stack     1    00000080    00000300     UNINITIALIZED
                  00000080    00000300     --HOLE--

DevEmuRegsFile 
*          1    00000880    00000042     UNINITIALIZED
                  00000880    00000042     F28M36x_GlobalVariableDefs.obj (DevEmuRegsFile)

CsmRegsFile 
*          1    00000ae0    00000016     UNINITIALIZED
                  00000ae0    00000016     F28M36x_GlobalVariableDefs.obj (CsmRegsFile)

AdcResultFile 
*          1    00000b00    00000010     UNINITIALIZED
                  00000b00    00000010     F28M36x_GlobalVariableDefs.obj (AdcResultFile)

Adc1ResultFile 
*          1    00000b00    00000010     UNINITIALIZED
                  00000b00    00000010     F28M36x_GlobalVariableDefs.obj (Adc1ResultFile)

Adc2ResultFile 
*          1    00000b40    00000010     UNINITIALIZED
                  00000b40    00000010     F28M36x_GlobalVariableDefs.obj (Adc2ResultFile)

CpuTimer0RegsFile 
*          1    00000c00    00000008     UNINITIALIZED
                  00000c00    00000008     F28M36x_GlobalVariableDefs.obj (CpuTimer0RegsFile)

CpuTimer1RegsFile 
*          1    00000c08    00000008     UNINITIALIZED
                  00000c08    00000008     F28M36x_GlobalVariableDefs.obj (CpuTimer1RegsFile)

CpuTimer2RegsFile 
*          1    00000c10    00000008     UNINITIALIZED
                  00000c10    00000008     F28M36x_GlobalVariableDefs.obj (CpuTimer2RegsFile)

PieCtrlRegsFile 
*          1    00000ce0    0000001a     UNINITIALIZED
                  00000ce0    0000001a     F28M36x_GlobalVariableDefs.obj (PieCtrlRegsFile)

PieVectTableFile 
*          1    00000d00    00000100     UNINITIALIZED
                  00000d00    00000100     F28M36x_GlobalVariableDefs.obj (PieVectTableFile)

EmuKeyVar 
*          1    00000d00    00000000     UNINITIALIZED

EmuBModeVar 
*          1    00000d00    00000000     UNINITIALIZED

FlashCallbackVar 
*          1    00000d00    00000000     UNINITIALIZED

FlashScalingVar 
*          1    00000d00    00000000     UNINITIALIZED

PieVectTableCopyFile 
*          1    00000e00    00000100     UNINITIALIZED
                  00000e00    00000100     F28M36x_GlobalVariableDefs.obj (PieVectTableCopyFile)

DmaRegsFile 
*          1    00001000    000000e0     UNINITIALIZED
                  00001000    000000e0     F28M36x_GlobalVariableDefs.obj (DmaRegsFile)

AnalogSysctrlRegsFile 
*          1    00001700    00000078     UNINITIALIZED
                  00001700    00000078     F28M36x_GlobalVariableDefs.obj (AnalogSysctrlRegsFile)

HWBistRegsFile 
*          1    00001780    00000030     UNINITIALIZED
                  00001780    00000030     F28M36x_GlobalVariableDefs.obj (HWBistRegsFile)

FlashCtrlRegsFile 
*          1    00004000    00000182     UNINITIALIZED
                  00004000    00000182     F28M36x_GlobalVariableDefs.obj (FlashCtrlRegsFile)

FlashEccRegsFile 
*          1    00004300    00000024     UNINITIALIZED
                  00004300    00000024     F28M36x_GlobalVariableDefs.obj (FlashEccRegsFile)

M3PllRegsFile 
*          1    00004400    00000008     UNINITIALIZED
                  00004400    00000008     F28M36x_GlobalVariableDefs.obj (M3PllRegsFile)

RAMRegsFile 
*          1    00004900    0000003e     UNINITIALIZED
                  00004900    0000003e     F28M36x_GlobalVariableDefs.obj (RAMRegsFile)

RAMErrRegsFile 
*          1    00004a00    0000003e     UNINITIALIZED
                  00004a00    0000003e     F28M36x_GlobalVariableDefs.obj (RAMErrRegsFile)

CtoMIpcRegsFile 
*          1    00004e00    00000040     UNINITIALIZED
                  00004e00    00000040     F28M36x_GlobalVariableDefs.obj (CtoMIpcRegsFile)

McbspaRegsFile 
*          1    00005000    00000024     UNINITIALIZED
                  00005000    00000024     F28M36x_GlobalVariableDefs.obj (McbspaRegsFile)

EPwm1RegsFile 
*          1    00005100    00000080     UNINITIALIZED
                  00005100    00000080     F28M36x_GlobalVariableDefs.obj (EPwm1RegsFile)

EPwm2RegsFile 
*          1    00005180    00000080     UNINITIALIZED
                  00005180    00000080     F28M36x_GlobalVariableDefs.obj (EPwm2RegsFile)

EPwm3RegsFile 
*          1    00005200    00000080     UNINITIALIZED
                  00005200    00000080     F28M36x_GlobalVariableDefs.obj (EPwm3RegsFile)

EPwm4RegsFile 
*          1    00005280    00000080     UNINITIALIZED
                  00005280    00000080     F28M36x_GlobalVariableDefs.obj (EPwm4RegsFile)

EPwm5RegsFile 
*          1    00005300    00000080     UNINITIALIZED
                  00005300    00000080     F28M36x_GlobalVariableDefs.obj (EPwm5RegsFile)

EPwm6RegsFile 
*          1    00005380    00000080     UNINITIALIZED
                  00005380    00000080     F28M36x_GlobalVariableDefs.obj (EPwm6RegsFile)

EPwm7RegsFile 
*          1    00005400    00000080     UNINITIALIZED
                  00005400    00000080     F28M36x_GlobalVariableDefs.obj (EPwm7RegsFile)

EPwm8RegsFile 
*          1    00005480    00000080     UNINITIALIZED
                  00005480    00000080     F28M36x_GlobalVariableDefs.obj (EPwm8RegsFile)

EPwm9RegsFile 
*          1    00005500    00000080     UNINITIALIZED
                  00005500    00000080     F28M36x_GlobalVariableDefs.obj (EPwm9RegsFile)

EPwm10RegsFile 
*          1    00005580    00000080     UNINITIALIZED
                  00005580    00000080     F28M36x_GlobalVariableDefs.obj (EPwm10RegsFile)

ECap1RegsFile 
*          1    00005a00    00000020     UNINITIALIZED
                  00005a00    00000020     F28M36x_GlobalVariableDefs.obj (ECap1RegsFile)

ECap2RegsFile 
*          1    00005a20    00000020     UNINITIALIZED
                  00005a20    00000020     F28M36x_GlobalVariableDefs.obj (ECap2RegsFile)

ECap3RegsFile 
*          1    00005a40    00000020     UNINITIALIZED
                  00005a40    00000020     F28M36x_GlobalVariableDefs.obj (ECap3RegsFile)

ECap4RegsFile 
*          1    00005a60    00000020     UNINITIALIZED
                  00005a60    00000020     F28M36x_GlobalVariableDefs.obj (ECap4RegsFile)

ECap5RegsFile 
*          1    00005a80    00000020     UNINITIALIZED
                  00005a80    00000020     F28M36x_GlobalVariableDefs.obj (ECap5RegsFile)

ECap6RegsFile 
*          1    00005aa0    00000020     UNINITIALIZED
                  00005aa0    00000020     F28M36x_GlobalVariableDefs.obj (ECap6RegsFile)

EQep1RegsFile 
*          1    00005b00    00000022     UNINITIALIZED
                  00005b00    00000022     F28M36x_GlobalVariableDefs.obj (EQep1RegsFile)

EQep2RegsFile 
*          1    00005b40    00000022     UNINITIALIZED
                  00005b40    00000022     F28M36x_GlobalVariableDefs.obj (EQep2RegsFile)

EQep3RegsFile 
*          1    00005b80    00000022     UNINITIALIZED
                  00005b80    00000022     F28M36x_GlobalVariableDefs.obj (EQep3RegsFile)

GpioCtrlRegsFile 
*          1    00005f00    000000e0     UNINITIALIZED
                  00005f00    000000e0     F28M36x_GlobalVariableDefs.obj (GpioCtrlRegsFile)

GpioG1CtrlRegsFile 
*          1    00005f00    000000e0     UNINITIALIZED
                  00005f00    000000e0     F28M36x_GlobalVariableDefs.obj (GpioG1CtrlRegsFile)

GpioDataRegsFile 
*          1    00005f00    000000e0     UNINITIALIZED
                  00005f00    000000e0     F28M36x_GlobalVariableDefs.obj (GpioDataRegsFile)

GpioG1DataRegsFile 
*          1    00005f00    000000e0     UNINITIALIZED
                  00005f00    000000e0     F28M36x_GlobalVariableDefs.obj (GpioG1DataRegsFile)

GpioTripRegsFile 
*          1    00005fe0    00000020     UNINITIALIZED
                  00005fe0    00000020     F28M36x_GlobalVariableDefs.obj (GpioTripRegsFile)

GpioG1TripRegsFile 
*          1    00005fe0    00000020     UNINITIALIZED
                  00005fe0    00000020     F28M36x_GlobalVariableDefs.obj (GpioG1TripRegsFile)

Comp1RegsFile 
*          1    00006400    00000007     UNINITIALIZED
                  00006400    00000007     F28M36x_GlobalVariableDefs.obj (Comp1RegsFile)

Comp2RegsFile 
*          1    00006420    00000007     UNINITIALIZED
                  00006420    00000007     F28M36x_GlobalVariableDefs.obj (Comp2RegsFile)

Comp3RegsFile 
*          1    00006440    00000007     UNINITIALIZED
                  00006440    00000007     F28M36x_GlobalVariableDefs.obj (Comp3RegsFile)

Comp4RegsFile 
*          1    00006460    00000007     UNINITIALIZED
                  00006460    00000007     F28M36x_GlobalVariableDefs.obj (Comp4RegsFile)

Comp5RegsFile 
*          1    00006480    00000007     UNINITIALIZED
                  00006480    00000007     F28M36x_GlobalVariableDefs.obj (Comp5RegsFile)

Comp6RegsFile 
*          1    000064a0    00000007     UNINITIALIZED
                  000064a0    00000007     F28M36x_GlobalVariableDefs.obj (Comp6RegsFile)

GpioG2CtrlRegsFile 
*          1    00006f80    0000003c     UNINITIALIZED
                  00006f80    0000003c     F28M36x_GlobalVariableDefs.obj (GpioG2CtrlRegsFile)

GpioG2DataRegsFile 
*          1    00006fc0    00000020     UNINITIALIZED
                  00006fc0    00000020     F28M36x_GlobalVariableDefs.obj (GpioG2DataRegsFile)

SysCtrlRegsFile 
*          1    00007010    0000001d     UNINITIALIZED
                  00007010    0000001d     F28M36x_GlobalVariableDefs.obj (SysCtrlRegsFile)

SpiaRegsFile 
*          1    00007040    00000010     UNINITIALIZED
                  00007040    00000010     F28M36x_GlobalVariableDefs.obj (SpiaRegsFile)

SciaRegsFile 
*          1    00007050    00000010     UNINITIALIZED
                  00007050    00000010     F28M36x_GlobalVariableDefs.obj (SciaRegsFile)

NmiIntruptRegsFile 
*          1    00007060    00000006     UNINITIALIZED
                  00007060    00000006     F28M36x_GlobalVariableDefs.obj (NmiIntruptRegsFile)

XIntruptRegsFile 
*          1    00007070    00000010     UNINITIALIZED
                  00007070    00000010     F28M36x_GlobalVariableDefs.obj (XIntruptRegsFile)

AdcRegsFile 
*          1    00007100    00000050     UNINITIALIZED
                  00007100    00000050     F28M36x_GlobalVariableDefs.obj (AdcRegsFile)

Adc1RegsFile 
*          1    00007100    00000050     UNINITIALIZED
                  00007100    00000050     F28M36x_GlobalVariableDefs.obj (Adc1RegsFile)

Adc2RegsFile 
*          1    00007180    00000050     UNINITIALIZED
                  00007180    00000050     F28M36x_GlobalVariableDefs.obj (Adc2RegsFile)

I2caRegsFile 
*          1    00007900    00000022     UNINITIALIZED
                  00007900    00000022     F28M36x_GlobalVariableDefs.obj (I2caRegsFile)

.ebss      1    0000a000    0000094f     UNINITIALIZED
                  0000a000    00000840     Test_HRPWM.obj (.ebss)
                  0000a840    0000002e     PWM_modules.obj (.ebss)
                  0000a86e    0000000e     FAC_Full_ACDC_10kHz.obj (.ebss)
                  0000a87c    00000004     HRADC_Boards.obj (.ebss)
                  0000a880    0000001e     ELP_DCL.obj (.ebss)
                  0000a89e    0000001e     SigGen.obj (.ebss)
                  0000a8bc    00000004     rts2800_fpu32.lib : _lock.obj (.ebss)
                  0000a8c0    0000001a     Test_HRADC.obj (.ebss)
                  0000a8da    00000018     F28M36x_CpuTimers.obj (.ebss)
                  0000a8f2    0000000c     TimeSlicer.obj (.ebss)
                  0000a8fe    00000001     rts2800_fpu32.lib : errno.obj (.ebss)
                  0000a8ff    00000001     --HOLE--
                  0000a900    0000000b     SFO_TI_Build_V7_FPU.lib : SFO_v7_fpu_lib_build_c28.obj (.ebss)
                  0000a90b    00000001     --HOLE--
                  0000a90c    0000000a     FAC_ACDC_10kHz.obj (.ebss)
                  0000a916    00000008     DMA_SPI_Interface.obj (.ebss)
                  0000a91e    00000008     FAC_DCDC_20kHz.obj (.ebss)
                  0000a926    00000008     FAC_Full_DCDC_20kHz.obj (.ebss)
                  0000a92e    00000008     FAP_DCDC_20kHz.obj (.ebss)
                  0000a936    00000008     FBP_100kHz.obj (.ebss)
                  0000a93e    00000002     --HOLE--
                  0000a940    00000008     IPC_modules.obj (.ebss)
                  0000a948    00000004     rts2800_fpu32.lib : exit.obj (.ebss)
                  0000a94c    00000003     FAP_ACDC.obj (.ebss)

SHARERAMS0 
*          1    0000c000    00000330     UNINITIALIZED
                  0000c000    00000330     DP_framework.obj (SHARERAMS0)

SHARERAMS1 
*          1    0000d000    00000330     UNINITIALIZED
                  0000d000    00000330     DP_framework.obj (SHARERAMS1)

SHARERAMS2 
*          1    0000e000    00000440     UNINITIALIZED
                  0000e000    00000218     HRADC_Boards.obj (SHARERAMS2)
                  0000e218    00000028     --HOLE--
                  0000e240    00000200     DMA_SPI_Interface.obj (SHARERAMS2)

SHARERAMS45 
*          1    00010000    00002000     UNINITIALIZED
                  00010000    00002000     IPC_modules.obj (SHARERAMS45)

SHARERAMS67 
*          1    00012000    00002000     UNINITIALIZED
                  00012000    00002000     IPC_modules.obj (SHARERAMS67)

CTOM_MSG_RAM 
*          1    0003f800    00000022     UNINITIALIZED
                  0003f800    00000022     IPC_modules.obj (CTOM_MSG_RAM)

MTOC_MSG_RAM 
*          1    0003fc00    00000272     UNINITIALIZED
                  0003fc00    00000272     IPC_modules.obj (MTOC_MSG_RAM)

FlashExeOnlyFile 
*          1    0013fff2    00000002     UNINITIALIZED
                  0013fff2    00000002     F28M36x_GlobalVariableDefs.obj (FlashExeOnlyFile)

EcslPwlFile 
*          1    0013fff4    00000004     UNINITIALIZED
                  0013fff4    00000004     F28M36x_GlobalVariableDefs.obj (EcslPwlFile)

CsmPwlFile 
*          1    0013fff8    00000008     UNINITIALIZED
                  0013fff8    00000008     F28M36x_GlobalVariableDefs.obj (CsmPwlFile)


GLOBAL DATA SYMBOLS: SORTED BY DATA PAGE

address     data page           name
--------    ----------------    ----
00000080       2 (00000080)     __stack

00000880      22 (00000880)     _DevEmuRegs

00000ae0      2b (00000ac0)     _CsmRegs

00000b00      2c (00000b00)     _Adc1Result
00000b00      2c (00000b00)     _AdcResult

00000b40      2d (00000b40)     _Adc2Result

00000c00      30 (00000c00)     _CpuTimer0Regs
00000c08      30 (00000c00)     _CpuTimer1Regs
00000c10      30 (00000c00)     _CpuTimer2Regs

00000ce0      33 (00000cc0)     _PieCtrlRegs

00000d00      34 (00000d00)     _PieVectTable

00000e00      38 (00000e00)     _PieVectTableCopy

00001000      40 (00001000)     _DmaRegs

00001700      5c (00001700)     _AnalogSysctrlRegs

00001780      5e (00001780)     _HWBistRegs

00004000     100 (00004000)     _FlashCtrlRegs

00004300     10c (00004300)     _FlashEccRegs

00004400     110 (00004400)     _M3PllRegs

00004900     124 (00004900)     _RAMRegs

00004a00     128 (00004a00)     _RAMErrRegs

00004e00     138 (00004e00)     _CtoMIpcRegs

00005000     140 (00005000)     _McbspaRegs

00005100     144 (00005100)     _EPwm1Regs

00005180     146 (00005180)     _EPwm2Regs

00005200     148 (00005200)     _EPwm3Regs

00005280     14a (00005280)     _EPwm4Regs

00005300     14c (00005300)     _EPwm5Regs

00005380     14e (00005380)     _EPwm6Regs

00005400     150 (00005400)     _EPwm7Regs

00005480     152 (00005480)     _EPwm8Regs

00005500     154 (00005500)     _EPwm9Regs

00005580     156 (00005580)     _EPwm10Regs

00005a00     168 (00005a00)     _ECap1Regs
00005a20     168 (00005a00)     _ECap2Regs

00005a40     169 (00005a40)     _ECap3Regs
00005a60     169 (00005a40)     _ECap4Regs

00005a80     16a (00005a80)     _ECap5Regs
00005aa0     16a (00005a80)     _ECap6Regs

00005b00     16c (00005b00)     _EQep1Regs

00005b40     16d (00005b40)     _EQep2Regs

00005b80     16e (00005b80)     _EQep3Regs

00005f00     17c (00005f00)     _GpioCtrlRegs
00005f00     17c (00005f00)     _GpioDataRegs
00005f00     17c (00005f00)     _GpioG1CtrlRegs
00005f00     17c (00005f00)     _GpioG1DataRegs

00005fe0     17f (00005fc0)     _GpioG1TripRegs
00005fe0     17f (00005fc0)     _GpioTripRegs

00006400     190 (00006400)     _Comp1Regs
00006420     190 (00006400)     _Comp2Regs

00006440     191 (00006440)     _Comp3Regs
00006460     191 (00006440)     _Comp4Regs

00006480     192 (00006480)     _Comp5Regs
000064a0     192 (00006480)     _Comp6Regs

00006f80     1be (00006f80)     _GpioG2CtrlRegs

00006fc0     1bf (00006fc0)     _GpioG2DataRegs

00007010     1c0 (00007000)     _SysCtrlRegs

00007040     1c1 (00007040)     _SpiaRegs
00007050     1c1 (00007040)     _SciaRegs
00007060     1c1 (00007040)     _NmiIntruptRegs
00007070     1c1 (00007040)     _XIntruptRegs

00007100     1c4 (00007100)     _Adc1Regs
00007100     1c4 (00007100)     _AdcRegs

00007180     1c6 (00007180)     _Adc2Regs

00007900     1e4 (00007900)     _I2caRegs

0000a840     2a1 (0000a840)     _MEP_ScaleFactor
0000a841     2a1 (0000a840)     _SFO_status
0000a842     2a1 (0000a840)     _ePWM
0000a854     2a1 (0000a840)     _PWM_Modules
0000a87c     2a1 (0000a840)     _counterErrorSendCommand
0000a87e     2a1 (0000a840)     _AverageFilter

0000a880     2a2 (0000a880)     _a_coeff_NF_Vdc
0000a884     2a2 (0000a880)     _a_coeff_IIR_Vdc_ctrl
0000a888     2a2 (0000a880)     _a_coeff_LPF_Iin
0000a88c     2a2 (0000a880)     _b_coeff_LPF_Iin
0000a892     2a2 (0000a880)     _b_coeff_IIR_Vdc_ctrl
0000a898     2a2 (0000a880)     _b_coeff_NF_Vdc
0000a89e     2a2 (0000a880)     _SignalGenerator
0000a8bc     2a2 (0000a880)     __unlock
0000a8be     2a2 (0000a880)     __lock

0000a8c0     2a3 (0000a8c0)     _ID
0000a8c1     2a3 (0000a8c0)     _enableHeater
0000a8c2     2a3 (0000a8c0)     _SamplingEnable
0000a8c3     2a3 (0000a8c0)     _SendCommand
0000a8c6     2a3 (0000a8c0)     _enableRailsMonitor
0000a8c7     2a3 (0000a8c0)     _AnalogInput
0000a8ca     2a3 (0000a8c0)     _valorCounter
0000a8d0     2a3 (0000a8c0)     _HRADC2
0000a8d2     2a3 (0000a8c0)     _HRADC3
0000a8d4     2a3 (0000a8c0)     _HRADC0
0000a8d6     2a3 (0000a8c0)     _HRADC1
0000a8da     2a3 (0000a8c0)     _CpuTimer1
0000a8e2     2a3 (0000a8c0)     _CpuTimer2
0000a8ea     2a3 (0000a8c0)     _CpuTimer0
0000a8f2     2a3 (0000a8c0)     _TimeSlicer
0000a8fe     2a3 (0000a8c0)     _errno

0000a905     2a4 (0000a900)     _SFO_CAL
0000a906     2a4 (0000a900)     _MEP_SF
0000a916     2a4 (0000a900)     _i_rdata
0000a918     2a4 (0000a900)     _dummy_data
0000a91a     2a4 (0000a900)     _DMATransferSize

0000a940     2a5 (0000a940)     _wfmSyncFlag
0000a944     2a5 (0000a940)     _IPC_PS_funcs
0000a948     2a5 (0000a940)     ___TI_cleanup_ptr
0000a94a     2a5 (0000a940)     ___TI_dtors_ptr

0000c000     300 (0000c000)     _DP_Framework_MtoC

0000d000     340 (0000d000)     _DP_Framework

0000e000     380 (0000e000)     _HRADCs_Info

0000e040     381 (0000e040)     _HRADC0_board

0000e0c0     383 (0000e0c0)     _HRADC1_board

0000e140     385 (0000e140)     _HRADC3_board

0000e1c0     387 (0000e1c0)     _HRADC2_board

0000e240     389 (0000e240)     _buffers_HRADC

00010000     400 (00010000)     _samplesBuffer

00012000     480 (00012000)     _wfmRef_Curve

0003f800     fe0 (0003f800)     _IPC_CtoM_Msg

0003fc00     ff0 (0003fc00)     _IPC_MtoC_Msg

0003fcc0     ff3 (0003fcc0)     _IPC_MtoC_Param

0013e000    4f80 (0013e000)     _PieVectTableInit

0013fff2    4fff (0013ffc0)     _FlashExeOnly
0013fff4    4fff (0013ffc0)     _EcslPwl
0013fff8    4fff (0013ffc0)     _CsmPwl


GLOBAL SYMBOLS: SORTED ALPHABETICALLY BY Name 

address    name
--------   ----
0013a000   .text
0013c6f8   C$$EXIT
0013c277   FS$$DIV
0013a721   _ADCINT1_ISR
0013a717   _ADCINT2_ISR
0013a70d   _ADCINT3_ISR
0013a703   _ADCINT4_ISR
0013a6f9   _ADCINT5_ISR
0013a6ef   _ADCINT6_ISR
0013a6e5   _ADCINT7_ISR
0013a6db   _ADCINT8_ISR
00007100   _Adc1Regs
00000b00   _Adc1Result
00007180   _Adc2Regs
00000b40   _Adc2Result
00007100   _AdcRegs
00000b00   _AdcResult
0000a8c7   _AnalogInput
00001700   _AnalogSysctrlRegs
0000a87e   _AverageFilter
0013ae5d   _Bypass_ELP_SRLim
0013a6d1   _CFLFSM_ISR
0013a6c7   _CFLSINGERR_ISR
0013a6bd   _CRAMACCVIOL_ISR
0013a6b3   _CRAMSINGERR_ISR
0013be56   _CSMSecurityStatus
0013b6c5   _CheckStatus_HRADC
00006400   _Comp1Regs
00006420   _Comp2Regs
00006440   _Comp3Regs
00006460   _Comp4Regs
00006480   _Comp5Regs
000064a0   _Comp6Regs
0013c503   _ConfigCpuTimer
0013ba9a   _ConfigDP_Module
0013ba0b   _ConfigDP_Module_AllParam
000099f1   _ConfigPSOpMode
0013b731   _Config_HRADC_SoC
0013b6de   _Config_HRADC_board
0000a8ea   _CpuTimer0
00000c00   _CpuTimer0Regs
0000a8da   _CpuTimer1
00000c08   _CpuTimer1Regs
0000a8e2   _CpuTimer2
00000c10   _CpuTimer2Regs
0013fff8   _CsmPwl
00000ae0   _CsmRegs
0013be35   _CsmUnlock
00004e00   _CtoMIpcRegs
0013a6a9   _DATALOG_ISR
0013a69f   _DINTCH1_ISR
0013a695   _DINTCH2_ISR
0013a68b   _DINTCH3_ISR
0013a681   _DINTCH4_ISR
0013a677   _DINTCH5_ISR
0013a66d   _DINTCH6_ISR
0000a91a   _DMATransferSize
0000d000   _DP_Framework
0000c000   _DP_Framework_MtoC
00009b64   _DSP28x_usDelay
00000880   _DevEmuRegs
0013b43b   _DisablePWMInterrupt
000097c7   _DisablePWMOutput
000097ae   _DisablePWMOutputs
0013b420   _DisablePWM_TBCLK
000097f9   _Disable_ELP_SigGen
00001000   _DmaRegs
0013a663   _ECAP1_INT_ISR
0013a659   _ECAP2_INT_ISR
0013a64f   _ECAP3_INT_ISR
0013a645   _ECAP4_INT_ISR
0013a63b   _ECAP5_INT_ISR
0013a631   _ECAP6_INT_ISR
0013be29   _ECSLSecurityStatus
00005a00   _ECap1Regs
00005a20   _ECap2Regs
00005a40   _ECap3Regs
00005a60   _ECap4Regs
00005a80   _ECap5Regs
00005aa0   _ECap6Regs
0013a624   _EMPTY_ISR
0013a61a   _EMUINT_ISR
0013a610   _EPWM1_INT_ISR
0013a606   _EPWM1_TZINT_ISR
0013a5fc   _EPWM2_INT_ISR
0013a5f2   _EPWM2_TZINT_ISR
0013a5e8   _EPWM3_INT_ISR
0013a5de   _EPWM3_TZINT_ISR
0013a5d4   _EPWM4_INT_ISR
0013a5ca   _EPWM4_TZINT_ISR
0013a5c0   _EPWM5_INT_ISR
0013a5b6   _EPWM5_TZINT_ISR
0013a5ac   _EPWM6_INT_ISR
0013a5a2   _EPWM6_TZINT_ISR
0013a598   _EPWM7_INT_ISR
0013a58e   _EPWM7_TZINT_ISR
0013a584   _EPWM8_INT_ISR
0013a57a   _EPWM8_TZINT_ISR
0013a570   _EPWM9_INT_ISR
0013a566   _EPWM9_TZINT_ISR
00005580   _EPwm10Regs
00005100   _EPwm1Regs
00005180   _EPwm2Regs
00005200   _EPwm3Regs
00005280   _EPwm4Regs
00005300   _EPwm5Regs
00005380   _EPwm6Regs
00005400   _EPwm7Regs
00005480   _EPwm8Regs
00005500   _EPwm9Regs
0013a55c   _EQEP1_INT_ISR
0013a552   _EQEP2_INT_ISR
0013a548   _EQEP3_INT_ISR
00005b00   _EQep1Regs
00005b40   _EQep2Regs
00005b80   _EQep3Regs
0013fff4   _EcslPwl
0013be12   _EcslUnlock
0013c69b   _EnableInterrupts
0013b419   _EnablePWMInterrupt
0000979b   _EnablePWMOutput
00009781   _EnablePWMOutputs
0013b411   _EnablePWM_TBCLK
000098a4   _Enable_ELP_SigGen
00004000   _FlashCtrlRegs
00004300   _FlashEccRegs
0013fff2   _FlashExeOnly
0000991a   _FlashGainPump
0000990f   _FlashLeavePump
0013be08   _GetEXEstatus
00005f00   _GpioCtrlRegs
00005f00   _GpioDataRegs
00005f00   _GpioG1CtrlRegs
00005f00   _GpioG1DataRegs
00005fe0   _GpioG1TripRegs
00006f80   _GpioG2CtrlRegs
00006fc0   _GpioG2DataRegs
00005fe0   _GpioTripRegs
0000a8d4   _HRADC0
0000e040   _HRADC0_board
0000a8d6   _HRADC1
0000e0c0   _HRADC1_board
0000a8d0   _HRADC2
0000e1c0   _HRADC2_board
0000a8d2   _HRADC3
0000e140   _HRADC3_board
0000e000   _HRADCs_Info
00001780   _HWBistRegs
0013a53e   _I2CINT1A_ISR
0013a534   _I2CINT2A_ISR
00007900   _I2caRegs
0000a8c0   _ID
0013a52a   _ILLEGAL_ISR
0013a520   _INT13_ISR
0013a516   _INT14_ISR
0003f800   _IPC_CtoM_Msg
0003fc00   _IPC_MtoC_Msg
0003fcc0   _IPC_MtoC_Param
0000a944   _IPC_PS_funcs
0013c641   _IndexBuffer
0013c635   _InitBuffer
0013c4c8   _InitCpuTimers
0013b9ed   _InitDP_Framework
0013c276   _InitEPwm
0013c1e1   _InitEPwm1Gpio
0013c1ef   _InitEPwm2Gpio
0013c1fd   _InitEPwm3Gpio
0013c20d   _InitEPwm4Gpio
0013c21d   _InitEPwm5Gpio
0013c22b   _InitEPwm6Gpio
0013c239   _InitEPwm7Gpio
0013c249   _InitEPwm8Gpio
0013c259   _InitEPwm9Gpio
0013c263   _InitEPwmGpio
0013c1da   _InitEPwmSyncGpio
000098e2   _InitFlash
0013c2ff   _InitIPC
0013bd19   _InitMcbsp
0013bc8b   _InitMcbspGpio
0013bd19   _InitMcbspa
0013bd0b   _InitMcbspa12bit
0013bcfd   _InitMcbspa16bit
0013bcef   _InitMcbspa20bit
0013bce1   _InitMcbspa24bit
0013bcd3   _InitMcbspa32bit
0013bcc9   _InitMcbspa8bit
0013bc8b   _InitMcbspaGpio
0013bc76   _InitMcbspaInt
0013b407   _InitPWMDAC
0013b33d   _InitPWMModule
0013b332   _InitPWM_MEP_SFO
0013bd63   _InitPeripheralClocks
0013c677   _InitPieCtrl
0013c73e   _InitPieVectTable
0013bdcb   _InitSysCtrl
0013c1d6   _InitTzGpio
0013c072   _Init_DMA_McBSP_nBuffers
0013ae51   _Init_ELP_Error
0013ae2b   _Init_ELP_IIR_2P2Z
0013adfa   _Init_ELP_IIR_3P3Z
0013adbb   _Init_ELP_LPF
0013ad48   _Init_ELP_NF_IIR
0013ad09   _Init_ELP_PI_dawu
0013acf6   _Init_ELP_SRLim
0013bf61   _Init_ELP_SigGen
0013b654   _Init_HRADC_Info
0013c163   _Init_SPIMaster_Gpio
0013c115   _Init_SPIMaster_McBSP
0013a50c   _LUF_ISR
0013a502   _LVF_ISR
0013b312   _LinkPWM_Modules
0013bd5b   _LockDevice
00004400   _M3PllRegs
0000a906   _MEP_SF
0000a840   _MEP_ScaleFactor
0013a4f8   _MRINTA_ISR
0013a4ee   _MTOCIPC_INT1_ISR
0013a4e4   _MTOCIPC_INT2_ISR
0013a4da   _MTOCIPC_INT3_ISR
0013a4d0   _MTOCIPC_INT4_ISR
0013a4c6   _MXINTA_ISR
00005000   _McbspaRegs
0013a4bc   _NMI_ISR
00007060   _NmiIntruptRegs
0013a4b2   _PIE_RESERVED
0000a854   _PWM_Modules
00000ce0   _PieCtrlRegs
00000d00   _PieVectTable
00000e00   _PieVectTableCopy
0013e000   _PieVectTableInit
00004a00   _RAMErrRegs
00004900   _RAMRegs
0013a4a8   _RTOSINT_ISR
00139b68   _RamfuncsLoadEnd
00001b68   _RamfuncsLoadSize
00138000   _RamfuncsLoadStart
00009b68   _RamfuncsRunEnd
00001b68   _RamfuncsRunSize
00008000   _RamfuncsRunStart
0013c624   _ResetBuffer
0013acf1   _Reset_ELP_Error
0013ace1   _Reset_ELP_IIR_2P2Z
0013accd   _Reset_ELP_IIR_3P3Z
0013acc4   _Reset_ELP_LPF
0013acb4   _Reset_ELP_PI_dawu
0013acaf   _Reset_ELP_SRLim
0013bf55   _Reset_ELP_SigGen
0013c732   _Reset_TimeSlicers
0013aca3   _Run_ELP_Error
000096ac   _Run_ELP_IIR_2P2Z
0013ac45   _Run_ELP_IIR_3P3Z
0000968f   _Run_ELP_LPF
0000963e   _Run_ELP_PI_dawu
00009610   _Run_ELP_SRLim
00009851   _Run_ELP_SigGen_DampedSine
0000984b   _Run_ELP_SigGen_FreqSweep
000097fb   _Run_ELP_SigGen_Sine
000097f3   _Run_ELP_SigGen_Square
000097ed   _Run_ELP_SigGen_Triangle
0013a49e   _SCIRXINTA_ISR
0013a494   _SCITXINTA_ISR
0013b771   _SFO
0000a905   _SFO_CAL
0000a841   _SFO_status
0013a48a   _SPIRXINTA_ISR
0013a480   _SPITXINTA_ISR
0000a8c2   _SamplingEnable
00007050   _SciaRegs
0000a8c3   _SendCommand
0013b621   _SendCommand_HRADC
000099ec   _SendIpcFlag
0013b2f2   _SetPWMComplementary
0013b2be   _SetPWMCounterSync
0013b2a3   _SetPWMDeadTime
00009754   _SetPWMDutyCycle_ChA
00009727   _SetPWMDutyCycle_ChB
000096f6   _SetPWMDutyCycle_HBridge
0013b28d   _SetPWMFreq
0013b26c   _SetPWMSyncPhase
0013c72a   _Set_TimeSlicer
000098b2   _SetupFlash
0000a89e   _SignalGenerator
0013c61f   _SizeBuffer
00007040   _SpiaRegs
00007010   _SysCtrlRegs
0013a476   _TINT0_ISR
0000a8f2   _TimeSlicer
0013b266   _TunningPWM_MEP_SFO
0013a46c   _USER10_ISR
0013a462   _USER11_ISR
0013a458   _USER12_ISR
0013a44e   _USER1_ISR
0013a444   _USER2_ISR
0013a43a   _USER3_ISR
0013a430   _USER4_ISR
0013a426   _USER5_ISR
0013a41c   _USER6_ISR
0013a412   _USER7_ISR
0013a408   _USER8_ISR
0013a3fe   _USER9_ISR
000097d9   _Update_ELP_SigGen
0013a3f4   _WAKEINT_ISR
0013c60d   _WriteBuffer
0013a3ea   _XINT1_ISR
0013a3e0   _XINT2_ISR
0013a3d6   _XINT3_ISR
00007070   _XIntruptRegs
00000380   __STACK_END
00000300   __STACK_SIZE
00000001   __TI_args_main
0000a948   ___TI_cleanup_ptr
0000a94a   ___TI_dtors_ptr
ffffffff   ___binit__
ffffffff   ___c_args__
0013e100   ___cinit__
0013c764   ___etext__
0013c6a4   ___memcpy_ff
ffffffff   ___pinit__
0013a000   ___text__
0013c6df   __args_main
0000a8be   __lock
0013c763   __nop
0013c75f   __register_lock
0013c75b   __register_unlock
00000080   __stack
0000a8bc   __unlock
0000a884   _a_coeff_IIR_Vdc_ctrl
0000a888   _a_coeff_LPF_Iin
0000a880   _a_coeff_NF_Vdc
0013c6f8   _abort
0000a892   _b_coeff_IIR_Vdc_ctrl
0000a88c   _b_coeff_LPF_Iin
0000a898   _b_coeff_NF_Vdc
0000e240   _buffers_HRADC
0013c5c7   _c_int00
0013bc64   _clkg_delay_loop
0013c467   _cos
0000a87c   _counterErrorSendCommand
0013bc52   _delay_loop
0000a918   _dummy_data
0000a842   _ePWM
0000a8c1   _enableHeater
0000a8c6   _enableRailsMonitor
0013c74f   _epilog_c28x_1
0013c753   _epilog_c28x_2
0000a8fe   _errno
0013c6fa   _exit
0013c3ff   _exp
0000a916   _i_rdata
000093bb   _isr_IPC_Channel_1
00009368   _isr_IPC_Channel_2
0013c646   _ldexp
0013c3c1   _local_D_INTCH1_ISR
0013c383   _local_D_INTCH2_ISR
0013c57c   _main
0013a9c2   _main_FAC_ACDC_10kHz
0013b241   _main_FAC_DCDC_20kHz
0013a39a   _main_FAC_Full_ACDC_10kHz
0013ac20   _main_FAC_Full_DCDC_20kHz
0013bbeb   _main_FAP_ACDC
0013b055   _main_FAP_DCDC_20kHz
0013b60f   _main_FBP_100kHz
0013b9af   _main_Test_HRADC
0013beea   _main_Test_HRPWM
0013c711   _prolog_c28x_1
0013c715   _prolog_c28x_2
0013c71d   _prolog_c28x_3
0013a3cc   _rsvd_ISR
00010000   _samplesBuffer
0013c524   _sin
0013c065   _start_DMA
0013c03a   _stop_DMA
0000a8ca   _valorCounter
00012000   _wfmRef_Curve
0000a940   _wfmSyncFlag
ffffffff   binit
0013e100   cinit
0013fff0   code_start
0013c764   etext
ffffffff   pinit


GLOBAL SYMBOLS: SORTED BY Symbol Address 

address    name
--------   ----
00000001   __TI_args_main
00000080   __stack
00000300   __STACK_SIZE
00000380   __STACK_END
00000880   _DevEmuRegs
00000ae0   _CsmRegs
00000b00   _Adc1Result
00000b00   _AdcResult
00000b40   _Adc2Result
00000c00   _CpuTimer0Regs
00000c08   _CpuTimer1Regs
00000c10   _CpuTimer2Regs
00000ce0   _PieCtrlRegs
00000d00   _PieVectTable
00000e00   _PieVectTableCopy
00001000   _DmaRegs
00001700   _AnalogSysctrlRegs
00001780   _HWBistRegs
00001b68   _RamfuncsLoadSize
00001b68   _RamfuncsRunSize
00004000   _FlashCtrlRegs
00004300   _FlashEccRegs
00004400   _M3PllRegs
00004900   _RAMRegs
00004a00   _RAMErrRegs
00004e00   _CtoMIpcRegs
00005000   _McbspaRegs
00005100   _EPwm1Regs
00005180   _EPwm2Regs
00005200   _EPwm3Regs
00005280   _EPwm4Regs
00005300   _EPwm5Regs
00005380   _EPwm6Regs
00005400   _EPwm7Regs
00005480   _EPwm8Regs
00005500   _EPwm9Regs
00005580   _EPwm10Regs
00005a00   _ECap1Regs
00005a20   _ECap2Regs
00005a40   _ECap3Regs
00005a60   _ECap4Regs
00005a80   _ECap5Regs
00005aa0   _ECap6Regs
00005b00   _EQep1Regs
00005b40   _EQep2Regs
00005b80   _EQep3Regs
00005f00   _GpioCtrlRegs
00005f00   _GpioDataRegs
00005f00   _GpioG1CtrlRegs
00005f00   _GpioG1DataRegs
00005fe0   _GpioG1TripRegs
00005fe0   _GpioTripRegs
00006400   _Comp1Regs
00006420   _Comp2Regs
00006440   _Comp3Regs
00006460   _Comp4Regs
00006480   _Comp5Regs
000064a0   _Comp6Regs
00006f80   _GpioG2CtrlRegs
00006fc0   _GpioG2DataRegs
00007010   _SysCtrlRegs
00007040   _SpiaRegs
00007050   _SciaRegs
00007060   _NmiIntruptRegs
00007070   _XIntruptRegs
00007100   _Adc1Regs
00007100   _AdcRegs
00007180   _Adc2Regs
00007900   _I2caRegs
00008000   _RamfuncsRunStart
00009368   _isr_IPC_Channel_2
000093bb   _isr_IPC_Channel_1
00009610   _Run_ELP_SRLim
0000963e   _Run_ELP_PI_dawu
0000968f   _Run_ELP_LPF
000096ac   _Run_ELP_IIR_2P2Z
000096f6   _SetPWMDutyCycle_HBridge
00009727   _SetPWMDutyCycle_ChB
00009754   _SetPWMDutyCycle_ChA
00009781   _EnablePWMOutputs
0000979b   _EnablePWMOutput
000097ae   _DisablePWMOutputs
000097c7   _DisablePWMOutput
000097d9   _Update_ELP_SigGen
000097ed   _Run_ELP_SigGen_Triangle
000097f3   _Run_ELP_SigGen_Square
000097f9   _Disable_ELP_SigGen
000097fb   _Run_ELP_SigGen_Sine
0000984b   _Run_ELP_SigGen_FreqSweep
00009851   _Run_ELP_SigGen_DampedSine
000098a4   _Enable_ELP_SigGen
000098b2   _SetupFlash
000098e2   _InitFlash
0000990f   _FlashLeavePump
0000991a   _FlashGainPump
000099ec   _SendIpcFlag
000099f1   _ConfigPSOpMode
00009b64   _DSP28x_usDelay
00009b68   _RamfuncsRunEnd
0000a840   _MEP_ScaleFactor
0000a841   _SFO_status
0000a842   _ePWM
0000a854   _PWM_Modules
0000a87c   _counterErrorSendCommand
0000a87e   _AverageFilter
0000a880   _a_coeff_NF_Vdc
0000a884   _a_coeff_IIR_Vdc_ctrl
0000a888   _a_coeff_LPF_Iin
0000a88c   _b_coeff_LPF_Iin
0000a892   _b_coeff_IIR_Vdc_ctrl
0000a898   _b_coeff_NF_Vdc
0000a89e   _SignalGenerator
0000a8bc   __unlock
0000a8be   __lock
0000a8c0   _ID
0000a8c1   _enableHeater
0000a8c2   _SamplingEnable
0000a8c3   _SendCommand
0000a8c6   _enableRailsMonitor
0000a8c7   _AnalogInput
0000a8ca   _valorCounter
0000a8d0   _HRADC2
0000a8d2   _HRADC3
0000a8d4   _HRADC0
0000a8d6   _HRADC1
0000a8da   _CpuTimer1
0000a8e2   _CpuTimer2
0000a8ea   _CpuTimer0
0000a8f2   _TimeSlicer
0000a8fe   _errno
0000a905   _SFO_CAL
0000a906   _MEP_SF
0000a916   _i_rdata
0000a918   _dummy_data
0000a91a   _DMATransferSize
0000a940   _wfmSyncFlag
0000a944   _IPC_PS_funcs
0000a948   ___TI_cleanup_ptr
0000a94a   ___TI_dtors_ptr
0000c000   _DP_Framework_MtoC
0000d000   _DP_Framework
0000e000   _HRADCs_Info
0000e040   _HRADC0_board
0000e0c0   _HRADC1_board
0000e140   _HRADC3_board
0000e1c0   _HRADC2_board
0000e240   _buffers_HRADC
00010000   _samplesBuffer
00012000   _wfmRef_Curve
0003f800   _IPC_CtoM_Msg
0003fc00   _IPC_MtoC_Msg
0003fcc0   _IPC_MtoC_Param
00138000   _RamfuncsLoadStart
00139b68   _RamfuncsLoadEnd
0013a000   .text
0013a000   ___text__
0013a39a   _main_FAC_Full_ACDC_10kHz
0013a3cc   _rsvd_ISR
0013a3d6   _XINT3_ISR
0013a3e0   _XINT2_ISR
0013a3ea   _XINT1_ISR
0013a3f4   _WAKEINT_ISR
0013a3fe   _USER9_ISR
0013a408   _USER8_ISR
0013a412   _USER7_ISR
0013a41c   _USER6_ISR
0013a426   _USER5_ISR
0013a430   _USER4_ISR
0013a43a   _USER3_ISR
0013a444   _USER2_ISR
0013a44e   _USER1_ISR
0013a458   _USER12_ISR
0013a462   _USER11_ISR
0013a46c   _USER10_ISR
0013a476   _TINT0_ISR
0013a480   _SPITXINTA_ISR
0013a48a   _SPIRXINTA_ISR
0013a494   _SCITXINTA_ISR
0013a49e   _SCIRXINTA_ISR
0013a4a8   _RTOSINT_ISR
0013a4b2   _PIE_RESERVED
0013a4bc   _NMI_ISR
0013a4c6   _MXINTA_ISR
0013a4d0   _MTOCIPC_INT4_ISR
0013a4da   _MTOCIPC_INT3_ISR
0013a4e4   _MTOCIPC_INT2_ISR
0013a4ee   _MTOCIPC_INT1_ISR
0013a4f8   _MRINTA_ISR
0013a502   _LVF_ISR
0013a50c   _LUF_ISR
0013a516   _INT14_ISR
0013a520   _INT13_ISR
0013a52a   _ILLEGAL_ISR
0013a534   _I2CINT2A_ISR
0013a53e   _I2CINT1A_ISR
0013a548   _EQEP3_INT_ISR
0013a552   _EQEP2_INT_ISR
0013a55c   _EQEP1_INT_ISR
0013a566   _EPWM9_TZINT_ISR
0013a570   _EPWM9_INT_ISR
0013a57a   _EPWM8_TZINT_ISR
0013a584   _EPWM8_INT_ISR
0013a58e   _EPWM7_TZINT_ISR
0013a598   _EPWM7_INT_ISR
0013a5a2   _EPWM6_TZINT_ISR
0013a5ac   _EPWM6_INT_ISR
0013a5b6   _EPWM5_TZINT_ISR
0013a5c0   _EPWM5_INT_ISR
0013a5ca   _EPWM4_TZINT_ISR
0013a5d4   _EPWM4_INT_ISR
0013a5de   _EPWM3_TZINT_ISR
0013a5e8   _EPWM3_INT_ISR
0013a5f2   _EPWM2_TZINT_ISR
0013a5fc   _EPWM2_INT_ISR
0013a606   _EPWM1_TZINT_ISR
0013a610   _EPWM1_INT_ISR
0013a61a   _EMUINT_ISR
0013a624   _EMPTY_ISR
0013a631   _ECAP6_INT_ISR
0013a63b   _ECAP5_INT_ISR
0013a645   _ECAP4_INT_ISR
0013a64f   _ECAP3_INT_ISR
0013a659   _ECAP2_INT_ISR
0013a663   _ECAP1_INT_ISR
0013a66d   _DINTCH6_ISR
0013a677   _DINTCH5_ISR
0013a681   _DINTCH4_ISR
0013a68b   _DINTCH3_ISR
0013a695   _DINTCH2_ISR
0013a69f   _DINTCH1_ISR
0013a6a9   _DATALOG_ISR
0013a6b3   _CRAMSINGERR_ISR
0013a6bd   _CRAMACCVIOL_ISR
0013a6c7   _CFLSINGERR_ISR
0013a6d1   _CFLFSM_ISR
0013a6db   _ADCINT8_ISR
0013a6e5   _ADCINT7_ISR
0013a6ef   _ADCINT6_ISR
0013a6f9   _ADCINT5_ISR
0013a703   _ADCINT4_ISR
0013a70d   _ADCINT3_ISR
0013a717   _ADCINT2_ISR
0013a721   _ADCINT1_ISR
0013a9c2   _main_FAC_ACDC_10kHz
0013ac20   _main_FAC_Full_DCDC_20kHz
0013ac45   _Run_ELP_IIR_3P3Z
0013aca3   _Run_ELP_Error
0013acaf   _Reset_ELP_SRLim
0013acb4   _Reset_ELP_PI_dawu
0013acc4   _Reset_ELP_LPF
0013accd   _Reset_ELP_IIR_3P3Z
0013ace1   _Reset_ELP_IIR_2P2Z
0013acf1   _Reset_ELP_Error
0013acf6   _Init_ELP_SRLim
0013ad09   _Init_ELP_PI_dawu
0013ad48   _Init_ELP_NF_IIR
0013adbb   _Init_ELP_LPF
0013adfa   _Init_ELP_IIR_3P3Z
0013ae2b   _Init_ELP_IIR_2P2Z
0013ae51   _Init_ELP_Error
0013ae5d   _Bypass_ELP_SRLim
0013b055   _main_FAP_DCDC_20kHz
0013b241   _main_FAC_DCDC_20kHz
0013b266   _TunningPWM_MEP_SFO
0013b26c   _SetPWMSyncPhase
0013b28d   _SetPWMFreq
0013b2a3   _SetPWMDeadTime
0013b2be   _SetPWMCounterSync
0013b2f2   _SetPWMComplementary
0013b312   _LinkPWM_Modules
0013b332   _InitPWM_MEP_SFO
0013b33d   _InitPWMModule
0013b407   _InitPWMDAC
0013b411   _EnablePWM_TBCLK
0013b419   _EnablePWMInterrupt
0013b420   _DisablePWM_TBCLK
0013b43b   _DisablePWMInterrupt
0013b60f   _main_FBP_100kHz
0013b621   _SendCommand_HRADC
0013b654   _Init_HRADC_Info
0013b6c5   _CheckStatus_HRADC
0013b6de   _Config_HRADC_board
0013b731   _Config_HRADC_SoC
0013b771   _SFO
0013b9af   _main_Test_HRADC
0013b9ed   _InitDP_Framework
0013ba0b   _ConfigDP_Module_AllParam
0013ba9a   _ConfigDP_Module
0013bbeb   _main_FAP_ACDC
0013bc52   _delay_loop
0013bc64   _clkg_delay_loop
0013bc76   _InitMcbspaInt
0013bc8b   _InitMcbspGpio
0013bc8b   _InitMcbspaGpio
0013bcc9   _InitMcbspa8bit
0013bcd3   _InitMcbspa32bit
0013bce1   _InitMcbspa24bit
0013bcef   _InitMcbspa20bit
0013bcfd   _InitMcbspa16bit
0013bd0b   _InitMcbspa12bit
0013bd19   _InitMcbsp
0013bd19   _InitMcbspa
0013bd5b   _LockDevice
0013bd63   _InitPeripheralClocks
0013bdcb   _InitSysCtrl
0013be08   _GetEXEstatus
0013be12   _EcslUnlock
0013be29   _ECSLSecurityStatus
0013be35   _CsmUnlock
0013be56   _CSMSecurityStatus
0013beea   _main_Test_HRPWM
0013bf55   _Reset_ELP_SigGen
0013bf61   _Init_ELP_SigGen
0013c03a   _stop_DMA
0013c065   _start_DMA
0013c072   _Init_DMA_McBSP_nBuffers
0013c115   _Init_SPIMaster_McBSP
0013c163   _Init_SPIMaster_Gpio
0013c1d6   _InitTzGpio
0013c1da   _InitEPwmSyncGpio
0013c1e1   _InitEPwm1Gpio
0013c1ef   _InitEPwm2Gpio
0013c1fd   _InitEPwm3Gpio
0013c20d   _InitEPwm4Gpio
0013c21d   _InitEPwm5Gpio
0013c22b   _InitEPwm6Gpio
0013c239   _InitEPwm7Gpio
0013c249   _InitEPwm8Gpio
0013c259   _InitEPwm9Gpio
0013c263   _InitEPwmGpio
0013c276   _InitEPwm
0013c277   FS$$DIV
0013c2ff   _InitIPC
0013c383   _local_D_INTCH2_ISR
0013c3c1   _local_D_INTCH1_ISR
0013c3ff   _exp
0013c467   _cos
0013c4c8   _InitCpuTimers
0013c503   _ConfigCpuTimer
0013c524   _sin
0013c57c   _main
0013c5c7   _c_int00
0013c60d   _WriteBuffer
0013c61f   _SizeBuffer
0013c624   _ResetBuffer
0013c635   _InitBuffer
0013c641   _IndexBuffer
0013c646   _ldexp
0013c677   _InitPieCtrl
0013c69b   _EnableInterrupts
0013c6a4   ___memcpy_ff
0013c6df   __args_main
0013c6f8   C$$EXIT
0013c6f8   _abort
0013c6fa   _exit
0013c711   _prolog_c28x_1
0013c715   _prolog_c28x_2
0013c71d   _prolog_c28x_3
0013c72a   _Set_TimeSlicer
0013c732   _Reset_TimeSlicers
0013c73e   _InitPieVectTable
0013c74f   _epilog_c28x_1
0013c753   _epilog_c28x_2
0013c75b   __register_unlock
0013c75f   __register_lock
0013c763   __nop
0013c764   ___etext__
0013c764   etext
0013e000   _PieVectTableInit
0013e100   ___cinit__
0013e100   cinit
0013fff0   code_start
0013fff2   _FlashExeOnly
0013fff4   _EcslPwl
0013fff8   _CsmPwl
ffffffff   ___binit__
ffffffff   ___c_args__
ffffffff   ___pinit__
ffffffff   binit
ffffffff   pinit

[380 symbols]
